ext/bitcoin _ZGVZN14BitcoinNetAddr4nullEvE7nullval guard variable for BitcoinNetAddr::null()::nullval
ext/bitcoin _ZGVZNK14BitcoinNetAddr6getBinEvE9null_addr guard variable for BitcoinNetAddr::getBin() const::null_addr
ext/bitcoin _ZN10QByteArrayD1Ev QByteArray::~QByteArray()
ext/bitcoin _ZN10QByteArrayD2Ev QByteArray::~QByteArray()
ext/bitcoin _ZN11BitcoinTxInC1ER11QDataStream BitcoinTxIn::BitcoinTxIn(QDataStream&)
ext/bitcoin _ZN11BitcoinTxInC2ER11QDataStream BitcoinTxIn::BitcoinTxIn(QDataStream&)
ext/bitcoin _ZN11BitcoinTxInD1Ev BitcoinTxIn::~BitcoinTxIn()
ext/bitcoin _ZN11BitcoinTxInD2Ev BitcoinTxIn::~BitcoinTxIn()
ext/bitcoin _ZN12BitcoinBlock9setHeightEj BitcoinBlock::setHeight(unsigned int)
ext/bitcoin _ZN12BitcoinBlockC1ERK10QByteArrayj BitcoinBlock::BitcoinBlock(QByteArray const&, unsigned int)
ext/bitcoin _ZN12BitcoinBlockC1Ev BitcoinBlock::BitcoinBlock()
ext/bitcoin _ZN12BitcoinBlockC2ERK10QByteArrayj BitcoinBlock::BitcoinBlock(QByteArray const&, unsigned int)
ext/bitcoin _ZN12BitcoinBlockC2Ev BitcoinBlock::BitcoinBlock()
ext/bitcoin _ZN12BitcoinTxOutC1ER11QDataStream BitcoinTxOut::BitcoinTxOut(QDataStream&)
ext/bitcoin _ZN12BitcoinTxOutC2ER11QDataStream BitcoinTxOut::BitcoinTxOut(QDataStream&)
ext/bitcoin _ZN12BitcoinTxOutD1Ev BitcoinTxOut::~BitcoinTxOut()
ext/bitcoin _ZN12BitcoinTxOutD2Ev BitcoinTxOut::~BitcoinTxOut()
ext/bitcoin _ZN13BitcoinCrypto12doubleSha256ERK10QByteArray BitcoinCrypto::doubleSha256(QByteArray const&)
ext/bitcoin _ZN13BitcoinCrypto4initEv BitcoinCrypto::init()
ext/bitcoin _ZN13BitcoinStream10readStringER11QDataStream BitcoinStream::readString(QDataStream&)
ext/bitcoin _ZN13BitcoinStream11readAddressER11QDataStream BitcoinStream::readAddress(QDataStream&)
ext/bitcoin _ZN13BitcoinStream11writeStringER11QDataStreamRK10QByteArray BitcoinStream::writeString(QDataStream&, QByteArray const&)
ext/bitcoin _ZN13BitcoinStream12writeAddressER11QDataStreamRK14BitcoinNetAddr BitcoinStream::writeAddress(QDataStream&, BitcoinNetAddr const&)
ext/bitcoin _ZN13BitcoinStream7readIntER11QDataStream BitcoinStream::readInt(QDataStream&)
ext/bitcoin _ZN13BitcoinStream8readDataER11QDataStreami BitcoinStream::readData(QDataStream&, int)
ext/bitcoin _ZN13BitcoinStream8writeIntER11QDataStreamy BitcoinStream::writeInt(QDataStream&, unsigned long long)
ext/bitcoin _ZN13BitcoinStream9writeDataER11QDataStreamRK10QByteArray BitcoinStream::writeData(QDataStream&, QByteArray const&)
ext/bitcoin _ZN14BitcoinNetAddr10decode_binEv BitcoinNetAddr::decode_bin()
ext/bitcoin _ZN14BitcoinNetAddr4nullEv BitcoinNetAddr::null()
ext/bitcoin _ZN14BitcoinNetAddr9decode_hpEv BitcoinNetAddr::decode_hp()
ext/bitcoin _ZN14BitcoinNetAddrC1ERK10QByteArray BitcoinNetAddr::BitcoinNetAddr(QByteArray const&)
ext/bitcoin _ZN14BitcoinNetAddrC1ERK12QHostAddressty BitcoinNetAddr::BitcoinNetAddr(QHostAddress const&, unsigned short, unsigned long long)
ext/bitcoin _ZN14BitcoinNetAddrC1Ev BitcoinNetAddr::BitcoinNetAddr()
ext/bitcoin _ZN14BitcoinNetAddrC2ERK10QByteArray BitcoinNetAddr::BitcoinNetAddr(QByteArray const&)
ext/bitcoin _ZN14BitcoinNetAddrC2ERK12QHostAddressty BitcoinNetAddr::BitcoinNetAddr(QHostAddress const&, unsigned short, unsigned long long)
ext/bitcoin _ZN14BitcoinNetAddrC2Ev BitcoinNetAddr::BitcoinNetAddr()
ext/bitcoin _ZN14BitcoinNetAddrD1Ev BitcoinNetAddr::~BitcoinNetAddr()
ext/bitcoin _ZN14BitcoinNetAddrD2Ev BitcoinNetAddr::~BitcoinNetAddr()
ext/bitcoin _ZN15BitcoinTxScriptC1ERK10QByteArray BitcoinTxScript::BitcoinTxScript(QByteArray const&)
ext/bitcoin _ZN15BitcoinTxScriptC1Ev BitcoinTxScript::BitcoinTxScript()
ext/bitcoin _ZN15BitcoinTxScriptC2ERK10QByteArray BitcoinTxScript::BitcoinTxScript(QByteArray const&)
ext/bitcoin _ZN15BitcoinTxScriptC2Ev BitcoinTxScript::BitcoinTxScript()
ext/bitcoin _ZN5QListI11BitcoinTxInE18detach_helper_growEii QList<BitcoinTxIn>::detach_helper_grow(int, int)
ext/bitcoin _ZN5QListI11BitcoinTxInE6appendERKS0_ QList<BitcoinTxIn>::append(BitcoinTxIn const&)
ext/bitcoin _ZN5QListI11BitcoinTxInEC1ERKS1_ QList<BitcoinTxIn>::QList(QList<BitcoinTxIn> const&)
ext/bitcoin _ZN5QListI11BitcoinTxInEC2ERKS1_ QList<BitcoinTxIn>::QList(QList<BitcoinTxIn> const&)
ext/bitcoin _ZN5QListI11BitcoinTxInED1Ev QList<BitcoinTxIn>::~QList()
ext/bitcoin _ZN5QListI11BitcoinTxInED2Ev QList<BitcoinTxIn>::~QList()
ext/bitcoin _ZN5QListI12BitcoinTxOutE18detach_helper_growEii QList<BitcoinTxOut>::detach_helper_grow(int, int)
ext/bitcoin _ZN5QListI12BitcoinTxOutE6appendERKS0_ QList<BitcoinTxOut>::append(BitcoinTxOut const&)
ext/bitcoin _ZN5QListI12BitcoinTxOutE7deallocEPN9QListData4DataE.isra.5 QList<BitcoinTxOut>::dealloc(QListData::Data*) [clone .isra.5]
ext/bitcoin _ZN5QListI12BitcoinTxOutEC1ERKS1_ QList<BitcoinTxOut>::QList(QList<BitcoinTxOut> const&)
ext/bitcoin _ZN5QListI12BitcoinTxOutEC2ERKS1_ QList<BitcoinTxOut>::QList(QList<BitcoinTxOut> const&)
ext/bitcoin _ZN5QListI12BitcoinTxOutED1Ev QList<BitcoinTxOut>::~QList()
ext/bitcoin _ZN5QListI12BitcoinTxOutED2Ev QList<BitcoinTxOut>::~QList()
ext/bitcoin _ZN5QListI9BitcoinTxE18detach_helper_growEii QList<BitcoinTx>::detach_helper_grow(int, int)
ext/bitcoin _ZN5QListI9BitcoinTxE6appendERKS0_ QList<BitcoinTx>::append(BitcoinTx const&)
ext/bitcoin _ZN5QListI9BitcoinTxEC1ERKS1_ QList<BitcoinTx>::QList(QList<BitcoinTx> const&)
ext/bitcoin _ZN5QListI9BitcoinTxEC2ERKS1_ QList<BitcoinTx>::QList(QList<BitcoinTx> const&)
ext/bitcoin _ZN5QListI9BitcoinTxED1Ev QList<BitcoinTx>::~QList()
ext/bitcoin _ZN5QListI9BitcoinTxED2Ev QList<BitcoinTx>::~QList()
ext/bitcoin _ZN7QStringD1Ev QString::~QString()
ext/bitcoin _ZN7QStringD2Ev QString::~QString()
ext/bitcoin _ZN9BitcoinTx11parseStreamER11QDataStream BitcoinTx::parseStream(QDataStream&)
ext/bitcoin _ZN9BitcoinTx4hashEv BitcoinTx::hash()
ext/bitcoin _ZN9BitcoinTx7uncacheEv BitcoinTx::uncache()
ext/bitcoin _ZN9BitcoinTx8generateEv BitcoinTx::generate()
ext/bitcoin _ZN9BitcoinTxC1ER11QDataStream BitcoinTx::BitcoinTx(QDataStream&)
ext/bitcoin _ZN9BitcoinTxC1ERK10QByteArray BitcoinTx::BitcoinTx(QByteArray const&)
ext/bitcoin _ZN9BitcoinTxC1Ev BitcoinTx::BitcoinTx()
ext/bitcoin _ZN9BitcoinTxC2ER11QDataStream BitcoinTx::BitcoinTx(QDataStream&)
ext/bitcoin _ZN9BitcoinTxC2ERK10QByteArray BitcoinTx::BitcoinTx(QByteArray const&)
ext/bitcoin _ZN9BitcoinTxC2Ev BitcoinTx::BitcoinTx()
ext/bitcoin _ZN9BitcoinTxD1Ev BitcoinTx::~BitcoinTx()
ext/bitcoin _ZN9BitcoinTxD2Ev BitcoinTx::~BitcoinTx()
ext/bitcoin _ZNK11BitcoinTxIn8generateER11QDataStream BitcoinTxIn::generate(QDataStream&) const
ext/bitcoin _ZNK12BitcoinBlock10getHexHashEv BitcoinBlock::getHexHash() const
ext/bitcoin _ZNK12BitcoinBlock15getTransactionsEv BitcoinBlock::getTransactions() const
ext/bitcoin _ZNK12BitcoinBlock6getRawEv BitcoinBlock::getRaw() const
ext/bitcoin _ZNK12BitcoinBlock7getHashEv BitcoinBlock::getHash() const
ext/bitcoin _ZNK12BitcoinBlock7isValidEv BitcoinBlock::isValid() const
ext/bitcoin _ZNK12BitcoinBlock9getHeightEv BitcoinBlock::getHeight() const
ext/bitcoin _ZNK12BitcoinBlock9getParentEv BitcoinBlock::getParent() const
ext/bitcoin _ZNK12BitcoinTxOut8generateER11QDataStream BitcoinTxOut::generate(QDataStream&) const
ext/bitcoin _ZNK14BitcoinNetAddr11getServicesEv BitcoinNetAddr::getServices() const
ext/bitcoin _ZNK14BitcoinNetAddr6getBinEv BitcoinNetAddr::getBin() const
ext/bitcoin _ZNK14BitcoinNetAddr6getKeyEv BitcoinNetAddr::getKey() const
ext/bitcoin _ZNK14BitcoinNetAddr7getAddrEv BitcoinNetAddr::getAddr() const
ext/bitcoin _ZNK14BitcoinNetAddr7getPortEv BitcoinNetAddr::getPort() const
ext/bitcoin _ZNK14BitcoinNetAddr7isValidEv BitcoinNetAddr::isValid() const
ext/bitcoin _ZNK15BitcoinTxScript12getTxOutAddrEv BitcoinTxScript::getTxOutAddr() const
ext/bitcoin _ZNK15BitcoinTxScript8generateER11QDataStream BitcoinTxScript::generate(QDataStream&) const
ext/bitcoin _ZNK9BitcoinTx8generateER11QDataStream BitcoinTx::generate(QDataStream&) const
ext/bitcoin _ZZN14BitcoinNetAddr4nullEvE7nullval BitcoinNetAddr::null()::nullval
ext/bitcoin _ZZNK14BitcoinNetAddr6getBinEvE9null_addr BitcoinNetAddr::getBin() const::null_addr
ext/elasticsearch _ZL26qt_meta_data_ElasticSearch qt_meta_data_ElasticSearch
ext/elasticsearch _ZL32qt_meta_stringdata_ElasticSearch qt_meta_stringdata_ElasticSearch
ext/elasticsearch _ZN13ElasticSearch11qt_metacallEN11QMetaObject4CallEiPPv ElasticSearch::qt_metacall(QMetaObject::Call, int, void**)
ext/elasticsearch _ZN13ElasticSearch11qt_metacastEPKc ElasticSearch::qt_metacast(char const*)
ext/elasticsearch _ZN13ElasticSearch16staticMetaObjectE ElasticSearch::staticMetaObject
ext/elasticsearch _ZN13ElasticSearch18qt_static_metacallEP7QObjectN11QMetaObject4CallEiPPv ElasticSearch::qt_static_metacall(QObject*, QMetaObject::Call, int, void**)
ext/elasticsearch _ZN13ElasticSearch5indexERK11QJsonObject ElasticSearch::index(QJsonObject const&)
ext/elasticsearch _ZN13ElasticSearch6searchERK10QByteArray ElasticSearch::search(QByteArray const&)
ext/elasticsearch _ZN13ElasticSearch6searchERK11QJsonObject ElasticSearch::search(QJsonObject const&)
ext/elasticsearch _ZN13ElasticSearchC1ERK7QStringP7QObject ElasticSearch::ElasticSearch(QString const&, QObject*)
ext/elasticsearch _ZN13ElasticSearchC2ERK7QStringP7QObject ElasticSearch::ElasticSearch(QString const&, QObject*)
ext/elasticsearch _ZN13ElasticSearchD0Ev ElasticSearch::~ElasticSearch()
ext/elasticsearch _ZN13ElasticSearchD1Ev ElasticSearch::~ElasticSearch()
ext/elasticsearch _ZN13ElasticSearchD2Ev ElasticSearch::~ElasticSearch()
ext/elasticsearch _ZN7QStringD1Ev QString::~QString()
ext/elasticsearch _ZN7QStringD2Ev QString::~QString()
ext/elasticsearch _ZNK13ElasticSearch10metaObjectEv ElasticSearch::metaObject() const
ext/elasticsearch _ZTI13ElasticSearch typeinfo for ElasticSearch
ext/elasticsearch _ZTS13ElasticSearch typeinfo name for ElasticSearch
ext/elasticsearch _ZTV13ElasticSearch vtable for ElasticSearch
ext/elasticsearch _ZZN13ElasticSearch5indexERK11QJsonObjectE19__PRETTY_FUNCTION__ ElasticSearch::index(QJsonObject const&)::__PRETTY_FUNCTION__
ext/elasticsearch _ZZN13ElasticSearch6searchERK10QByteArrayE19__PRETTY_FUNCTION__ ElasticSearch::search(QByteArray const&)::__PRETTY_FUNCTION__
ext/elasticsearch _ZZN13ElasticSearchC1ERK7QStringP7QObjectE19__PRETTY_FUNCTION__ ElasticSearch::ElasticSearch(QString const&, QObject*)::__PRETTY_FUNCTION__
ext/qamqp _ZL25qt_meta_data_QAMQP__Queue qt_meta_data_QAMQP__Queue
ext/qamqp _ZL26qt_meta_data_QAMQP__Client qt_meta_data_QAMQP__Client
ext/qamqp _ZL27qt_meta_data_QAMQP__Channel qt_meta_data_QAMQP__Channel
ext/qamqp _ZL27qt_meta_data_QAMQP__Network qt_meta_data_QAMQP__Network
ext/qamqp _ZL28qt_meta_data_QAMQP__Exchange qt_meta_data_QAMQP__Exchange
ext/qamqp _ZL30qt_meta_data_QAMQP__Connection qt_meta_data_QAMQP__Connection
ext/qamqp _ZL31qt_meta_stringdata_QAMQP__Queue qt_meta_stringdata_QAMQP__Queue
ext/qamqp _ZL32qt_meta_stringdata_QAMQP__Client qt_meta_stringdata_QAMQP__Client
ext/qamqp _ZL33qt_meta_stringdata_QAMQP__Channel qt_meta_stringdata_QAMQP__Channel
ext/qamqp _ZL33qt_meta_stringdata_QAMQP__Network qt_meta_stringdata_QAMQP__Network
ext/qamqp _ZL34qt_meta_stringdata_QAMQP__Exchange qt_meta_stringdata_QAMQP__Exchange
ext/qamqp _ZL36qt_meta_stringdata_QAMQP__Connection qt_meta_stringdata_QAMQP__Connection
ext/qamqp _ZN10QByteArrayD1Ev QByteArray::~QByteArray()
ext/qamqp _ZN10QByteArrayD2Ev QByteArray::~QByteArray()
ext/qamqp _ZN11QMetaTypeIdIN15QAbstractSocket11SocketErrorEE14qt_metatype_idEv.part.8 QMetaTypeId<QAbstractSocket::SocketError>::qt_metatype_id() [clone .part.8]
ext/qamqp _ZN11QMetaTypeIdIN5QAMQP5Frame7decimalEE14qt_metatype_idEv.part.26 QMetaTypeId<QAMQP::Frame::decimal>::qt_metatype_id() [clone .part.26]
ext/qamqp _ZN12QWeakPointerI7QObjectED1Ev QWeakPointer<QObject>::~QWeakPointer()
ext/qamqp _ZN12QWeakPointerI7QObjectED2Ev QWeakPointer<QObject>::~QWeakPointer()
ext/qamqp _ZN14QSharedPointerIN5QAMQP21AMQPlainAuthenticatorEE5derefEPN15QtSharedPointer20ExternalRefCountDataE QSharedPointer<QAMQP::AMQPlainAuthenticator>::deref(QtSharedPointer::ExternalRefCountData*)
ext/qamqp _ZN14QSharedPointerIN5QAMQP7MessageEE5derefEPN15QtSharedPointer20ExternalRefCountDataE QSharedPointer<QAMQP::Message>::deref(QtSharedPointer::ExternalRefCountData*)
ext/qamqp _ZN15QtSharedPointer33ExternalRefCountWithCustomDeleterIN5QAMQP13AuthenticatorENS_13NormalDeleterEE7deleterEPNS_20ExternalRefCountDataE QtSharedPointer::ExternalRefCountWithCustomDeleter<QAMQP::Authenticator, QtSharedPointer::NormalDeleter>::deleter(QtSharedPointer::ExternalRefCountData*)
ext/qamqp _ZN15QtSharedPointer33ExternalRefCountWithCustomDeleterIN5QAMQP7MessageENS_13NormalDeleterEE7deleterEPNS_20ExternalRefCountDataE QtSharedPointer::ExternalRefCountWithCustomDeleter<QAMQP::Message, QtSharedPointer::NormalDeleter>::deleter(QtSharedPointer::ExternalRefCountData*)
ext/qamqp _ZN17QtMetaTypePrivate23QMetaTypeFunctionHelperIN15QAbstractSocket11SocketErrorELb1EE6CreateEPKv QtMetaTypePrivate::QMetaTypeFunctionHelper<QAbstractSocket::SocketError, true>::Create(void const*)
ext/qamqp _ZN17QtMetaTypePrivate23QMetaTypeFunctionHelperIN15QAbstractSocket11SocketErrorELb1EE6DeleteEPv QtMetaTypePrivate::QMetaTypeFunctionHelper<QAbstractSocket::SocketError, true>::Delete(void*)
ext/qamqp _ZN17QtMetaTypePrivate23QMetaTypeFunctionHelperIN15QAbstractSocket11SocketErrorELb1EE8DestructEPv QtMetaTypePrivate::QMetaTypeFunctionHelper<QAbstractSocket::SocketError, true>::Destruct(void*)
ext/qamqp _ZN17QtMetaTypePrivate23QMetaTypeFunctionHelperIN15QAbstractSocket11SocketErrorELb1EE9ConstructEPvPKv QtMetaTypePrivate::QMetaTypeFunctionHelper<QAbstractSocket::SocketError, true>::Construct(void*, void const*)
ext/qamqp _ZN17QtMetaTypePrivate23QMetaTypeFunctionHelperIN5QAMQP5Frame6MethodELb1EE6CreateEPKv QtMetaTypePrivate::QMetaTypeFunctionHelper<QAMQP::Frame::Method, true>::Create(void const*)
ext/qamqp _ZN17QtMetaTypePrivate23QMetaTypeFunctionHelperIN5QAMQP5Frame6MethodELb1EE6DeleteEPv QtMetaTypePrivate::QMetaTypeFunctionHelper<QAMQP::Frame::Method, true>::Delete(void*)
ext/qamqp _ZN17QtMetaTypePrivate23QMetaTypeFunctionHelperIN5QAMQP5Frame6MethodELb1EE8DestructEPv QtMetaTypePrivate::QMetaTypeFunctionHelper<QAMQP::Frame::Method, true>::Destruct(void*)
ext/qamqp _ZN17QtMetaTypePrivate23QMetaTypeFunctionHelperIN5QAMQP5Frame6MethodELb1EE9ConstructEPvPKv QtMetaTypePrivate::QMetaTypeFunctionHelper<QAMQP::Frame::Method, true>::Construct(void*, void const*)
ext/qamqp _ZN17QtMetaTypePrivate23QMetaTypeFunctionHelperIN5QAMQP5Frame7decimalELb1EE6CreateEPKv QtMetaTypePrivate::QMetaTypeFunctionHelper<QAMQP::Frame::decimal, true>::Create(void const*)
ext/qamqp _ZN17QtMetaTypePrivate23QMetaTypeFunctionHelperIN5QAMQP5Frame7decimalELb1EE6DeleteEPv QtMetaTypePrivate::QMetaTypeFunctionHelper<QAMQP::Frame::decimal, true>::Delete(void*)
ext/qamqp _ZN17QtMetaTypePrivate23QMetaTypeFunctionHelperIN5QAMQP5Frame7decimalELb1EE8DestructEPv QtMetaTypePrivate::QMetaTypeFunctionHelper<QAMQP::Frame::decimal, true>::Destruct(void*)
ext/qamqp _ZN17QtMetaTypePrivate23QMetaTypeFunctionHelperIN5QAMQP5Frame7decimalELb1EE9ConstructEPvPKv QtMetaTypePrivate::QMetaTypeFunctionHelper<QAMQP::Frame::decimal, true>::Construct(void*, void const*)
ext/qamqp _ZN17QtMetaTypePrivate23QMetaTypeFunctionHelperIPN5QAMQP5QueueELb1EE6CreateEPKv QtMetaTypePrivate::QMetaTypeFunctionHelper<QAMQP::Queue*, true>::Create(void const*)
ext/qamqp _ZN17QtMetaTypePrivate23QMetaTypeFunctionHelperIPN5QAMQP5QueueELb1EE6DeleteEPv QtMetaTypePrivate::QMetaTypeFunctionHelper<QAMQP::Queue*, true>::Delete(void*)
ext/qamqp _ZN17QtMetaTypePrivate23QMetaTypeFunctionHelperIPN5QAMQP5QueueELb1EE8DestructEPv QtMetaTypePrivate::QMetaTypeFunctionHelper<QAMQP::Queue*, true>::Destruct(void*)
ext/qamqp _ZN17QtMetaTypePrivate23QMetaTypeFunctionHelperIPN5QAMQP5QueueELb1EE9ConstructEPvPKv QtMetaTypePrivate::QMetaTypeFunctionHelper<QAMQP::Queue*, true>::Construct(void*, void const*)
ext/qamqp _ZN18QMetaTypeIdQObjectIPN5QAMQP5QueueELb1EE14qt_metatype_idEv QMetaTypeIdQObject<QAMQP::Queue*, true>::qt_metatype_id()
ext/qamqp _ZN5QAMQP10Connection11qt_metacallEN11QMetaObject4CallEiPPv QAMQP::Connection::qt_metacall(QMetaObject::Call, int, void**)
ext/qamqp _ZN5QAMQP10Connection11qt_metacastEPKc QAMQP::Connection::qt_metacast(char const*)
ext/qamqp _ZN5QAMQP10Connection12disconnectedEv QAMQP::Connection::disconnected()
ext/qamqp _ZN5QAMQP10Connection16staticMetaObjectE QAMQP::Connection::staticMetaObject
ext/qamqp _ZN5QAMQP10Connection17addCustomPropertyERK7QStringS3_ QAMQP::Connection::addCustomProperty(QString const&, QString const&)
ext/qamqp _ZN5QAMQP10Connection18qt_static_metacallEP7QObjectN11QMetaObject4CallEiPPv QAMQP::Connection::qt_static_metacall(QObject*, QMetaObject::Call, int, void**)
ext/qamqp _ZN5QAMQP10Connection4openEv QAMQP::Connection::open()
ext/qamqp _ZN5QAMQP10Connection5closeEiRK7QStringii QAMQP::Connection::close(int, QString const&, int, int)
ext/qamqp _ZN5QAMQP10Connection6openOkEv QAMQP::Connection::openOk()
ext/qamqp _ZN5QAMQP10Connection6setQOSEit QAMQP::Connection::setQOS(int, unsigned short)
ext/qamqp _ZN5QAMQP10Connection6tuneOkEv QAMQP::Connection::tuneOk()
ext/qamqp _ZN5QAMQP10Connection7closeOkEv QAMQP::Connection::closeOk()
ext/qamqp _ZN5QAMQP10Connection7startOkEv QAMQP::Connection::startOk()
ext/qamqp _ZN5QAMQP10Connection8secureOkEv QAMQP::Connection::secureOk()
ext/qamqp _ZN5QAMQP10Connection9connectedEv QAMQP::Connection::connected()
ext/qamqp _ZN5QAMQP10Connection9_q_methodERKNS_5Frame6MethodE QAMQP::Connection::_q_method(QAMQP::Frame::Method const&)
ext/qamqp _ZN5QAMQP10ConnectionC1EPNS_6ClientE QAMQP::Connection::Connection(QAMQP::Client*)
ext/qamqp _ZN5QAMQP10ConnectionC2EPNS_6ClientE QAMQP::Connection::Connection(QAMQP::Client*)
ext/qamqp _ZN5QAMQP10ConnectionD0Ev QAMQP::Connection::~Connection()
ext/qamqp _ZN5QAMQP10ConnectionD1Ev QAMQP::Connection::~Connection()
ext/qamqp _ZN5QAMQP10ConnectionD2Ev QAMQP::Connection::~Connection()
ext/qamqp _ZN5QAMQP12QueuePrivate10_q_contentERKNS_5Frame7ContentE QAMQP::QueuePrivate::_q_content(QAMQP::Frame::Content const&)
ext/qamqp _ZN5QAMQP12QueuePrivate3ackERK14QSharedPointerINS_7MessageEE QAMQP::QueuePrivate::ack(QSharedPointer<QAMQP::Message> const&)
ext/qamqp _ZN5QAMQP12QueuePrivate3getEv QAMQP::QueuePrivate::get()
ext/qamqp _ZN5QAMQP12QueuePrivate4bindERK7QStringS3_ QAMQP::QueuePrivate::bind(QString const&, QString const&)
ext/qamqp _ZN5QAMQP12QueuePrivate5getOkERKNS_5Frame6MethodE QAMQP::QueuePrivate::getOk(QAMQP::Frame::Method const&)
ext/qamqp _ZN5QAMQP12QueuePrivate5purgeEv QAMQP::QueuePrivate::purge()
ext/qamqp _ZN5QAMQP12QueuePrivate6bindOkERKNS_5Frame6MethodE QAMQP::QueuePrivate::bindOk(QAMQP::Frame::Method const&)
ext/qamqp _ZN5QAMQP12QueuePrivate6removeEbbb QAMQP::QueuePrivate::remove(bool, bool, bool)
ext/qamqp _ZN5QAMQP12QueuePrivate6unbindERK7QStringS3_ QAMQP::QueuePrivate::unbind(QString const&, QString const&)
ext/qamqp _ZN5QAMQP12QueuePrivate7consumeE6QFlagsINS_5Queue13ConsumeOptionEE QAMQP::QueuePrivate::consume(QFlags<QAMQP::Queue::ConsumeOption>)
ext/qamqp _ZN5QAMQP12QueuePrivate7declareEv QAMQP::QueuePrivate::declare()
ext/qamqp _ZN5QAMQP12QueuePrivate7deliverERKNS_5Frame6MethodE QAMQP::QueuePrivate::deliver(QAMQP::Frame::Method const&)
ext/qamqp _ZN5QAMQP12QueuePrivate7_q_bodyERKNS_5Frame11ContentBodyE QAMQP::QueuePrivate::_q_body(QAMQP::Frame::ContentBody const&)
ext/qamqp _ZN5QAMQP12QueuePrivate8deleteOkERKNS_5Frame6MethodE QAMQP::QueuePrivate::deleteOk(QAMQP::Frame::Method const&)
ext/qamqp _ZN5QAMQP12QueuePrivate8unbindOkERKNS_5Frame6MethodE QAMQP::QueuePrivate::unbindOk(QAMQP::Frame::Method const&)
ext/qamqp _ZN5QAMQP12QueuePrivate9consumeOkERKNS_5Frame6MethodE QAMQP::QueuePrivate::consumeOk(QAMQP::Frame::Method const&)
ext/qamqp _ZN5QAMQP12QueuePrivate9declareOkERKNS_5Frame6MethodE QAMQP::QueuePrivate::declareOk(QAMQP::Frame::Method const&)
ext/qamqp _ZN5QAMQP12QueuePrivate9_q_methodERKNS_5Frame6MethodE QAMQP::QueuePrivate::_q_method(QAMQP::Frame::Method const&)
ext/qamqp _ZN5QAMQP12QueuePrivateC1EPNS_5QueueE QAMQP::QueuePrivate::QueuePrivate(QAMQP::Queue*)
ext/qamqp _ZN5QAMQP12QueuePrivateC2EPNS_5QueueE QAMQP::QueuePrivate::QueuePrivate(QAMQP::Queue*)
ext/qamqp _ZN5QAMQP12QueuePrivateD0Ev QAMQP::QueuePrivate::~QueuePrivate()
ext/qamqp _ZN5QAMQP12QueuePrivateD1Ev QAMQP::QueuePrivate::~QueuePrivate()
ext/qamqp _ZN5QAMQP12QueuePrivateD2Ev QAMQP::QueuePrivate::~QueuePrivate()
ext/qamqp _ZN5QAMQP13AuthenticatorD0Ev QAMQP::Authenticator::~Authenticator()
ext/qamqp _ZN5QAMQP13AuthenticatorD1Ev QAMQP::Authenticator::~Authenticator()
ext/qamqp _ZN5QAMQP13AuthenticatorD2Ev QAMQP::Authenticator::~Authenticator()
ext/qamqp _ZN5QAMQP13ClientPrivate10disconnectEv QAMQP::ClientPrivate::disconnect()
ext/qamqp _ZN5QAMQP13ClientPrivate11createQueueEiRK7QString QAMQP::ClientPrivate::createQueue(int, QString const&)
ext/qamqp _ZN5QAMQP13ClientPrivate11sockConnectEv QAMQP::ClientPrivate::sockConnect()
ext/qamqp _ZN5QAMQP13ClientPrivate14createExchangeEiRK7QString QAMQP::ClientPrivate::createExchange(int, QString const&)
ext/qamqp _ZN5QAMQP13ClientPrivate14parseCnnStringERK4QUrl QAMQP::ClientPrivate::parseCnnString(QUrl const&)
ext/qamqp _ZN5QAMQP13ClientPrivate4initEP7QObject QAMQP::ClientPrivate::init(QObject*)
ext/qamqp _ZN5QAMQP13ClientPrivate4initEP7QObjectRK4QUrl QAMQP::ClientPrivate::init(QObject*, QUrl const&)
ext/qamqp _ZN5QAMQP13ClientPrivate5loginEv QAMQP::ClientPrivate::login()
ext/qamqp _ZN5QAMQP13ClientPrivate7connectEv QAMQP::ClientPrivate::connect()
ext/qamqp _ZN5QAMQP13ClientPrivate7setAuthEPNS_13AuthenticatorE QAMQP::ClientPrivate::setAuth(QAMQP::Authenticator*)
ext/qamqp _ZN5QAMQP13ClientPrivateC1EPNS_6ClientE QAMQP::ClientPrivate::ClientPrivate(QAMQP::Client*)
ext/qamqp _ZN5QAMQP13ClientPrivateC2EPNS_6ClientE QAMQP::ClientPrivate::ClientPrivate(QAMQP::Client*)
ext/qamqp _ZN5QAMQP13ClientPrivateD1Ev QAMQP::ClientPrivate::~ClientPrivate()
ext/qamqp _ZN5QAMQP13ClientPrivateD2Ev QAMQP::ClientPrivate::~ClientPrivate()
ext/qamqp _ZN5QAMQP14ChannelPrivate15_q_disconnectedEv QAMQP::ChannelPrivate::_q_disconnected()
ext/qamqp _ZN5QAMQP14ChannelPrivate18nextChannelNumber_E QAMQP::ChannelPrivate::nextChannelNumber_
ext/qamqp _ZN5QAMQP14ChannelPrivate4flowERKNS_5Frame6MethodE QAMQP::ChannelPrivate::flow(QAMQP::Frame::Method const&)
ext/qamqp _ZN5QAMQP14ChannelPrivate4flowEv QAMQP::ChannelPrivate::flow()
ext/qamqp _ZN5QAMQP14ChannelPrivate4initEiPNS_6ClientE QAMQP::ChannelPrivate::init(int, QAMQP::Client*)
ext/qamqp _ZN5QAMQP14ChannelPrivate4openEv QAMQP::ChannelPrivate::open()
ext/qamqp _ZN5QAMQP14ChannelPrivate5closeEiRK7QStringii QAMQP::ChannelPrivate::close(int, QString const&, int, int)
ext/qamqp _ZN5QAMQP14ChannelPrivate5closeERKNS_5Frame6MethodE QAMQP::ChannelPrivate::close(QAMQP::Frame::Method const&)
ext/qamqp _ZN5QAMQP14ChannelPrivate6flowOkERKNS_5Frame6MethodE QAMQP::ChannelPrivate::flowOk(QAMQP::Frame::Method const&)
ext/qamqp _ZN5QAMQP14ChannelPrivate6flowOkEv QAMQP::ChannelPrivate::flowOk()
ext/qamqp _ZN5QAMQP14ChannelPrivate6openOkERKNS_5Frame6MethodE QAMQP::ChannelPrivate::openOk(QAMQP::Frame::Method const&)
ext/qamqp _ZN5QAMQP14ChannelPrivate6setQOSEit QAMQP::ChannelPrivate::setQOS(int, unsigned short)
ext/qamqp _ZN5QAMQP14ChannelPrivate7closeOkERKNS_5Frame6MethodE QAMQP::ChannelPrivate::closeOk(QAMQP::Frame::Method const&)
ext/qamqp _ZN5QAMQP14ChannelPrivate7closeOkEv QAMQP::ChannelPrivate::closeOk()
ext/qamqp _ZN5QAMQP14ChannelPrivate7_q_openEv QAMQP::ChannelPrivate::_q_open()
ext/qamqp _ZN5QAMQP14ChannelPrivate9_q_methodERKNS_5Frame6MethodE QAMQP::ChannelPrivate::_q_method(QAMQP::Frame::Method const&)
ext/qamqp _ZN5QAMQP14ChannelPrivate9sendFrameERKNS_5Frame4BaseE QAMQP::ChannelPrivate::sendFrame(QAMQP::Frame::Base const&)
ext/qamqp _ZN5QAMQP14ChannelPrivateC1EPNS_7ChannelE QAMQP::ChannelPrivate::ChannelPrivate(QAMQP::Channel*)
ext/qamqp _ZN5QAMQP14ChannelPrivateC2EPNS_7ChannelE QAMQP::ChannelPrivate::ChannelPrivate(QAMQP::Channel*)
ext/qamqp _ZN5QAMQP14ChannelPrivateD0Ev QAMQP::ChannelPrivate::~ChannelPrivate()
ext/qamqp _ZN5QAMQP14ChannelPrivateD1Ev QAMQP::ChannelPrivate::~ChannelPrivate()
ext/qamqp _ZN5QAMQP14ChannelPrivateD2Ev QAMQP::ChannelPrivate::~ChannelPrivate()
ext/qamqp _ZN5QAMQP15ExchangePrivate15_q_disconnectedEv QAMQP::ExchangePrivate::_q_disconnected()
ext/qamqp _ZN5QAMQP15ExchangePrivate6removeEbb QAMQP::ExchangePrivate::remove(bool, bool)
ext/qamqp _ZN5QAMQP15ExchangePrivate7declareEv QAMQP::ExchangePrivate::declare()
ext/qamqp _ZN5QAMQP15ExchangePrivate7publishERK10QByteArrayRK7QStringS6_RK5QHashIS4_8QVariantERKS7_INS_5Frame7Content8PropertyES8_E QAMQP::ExchangePrivate::publish(QByteArray const&, QString const&, QString const&, QHash<QString, QVariant> const&, QHash<QAMQP::Frame::Content::Property, QVariant> const&)
ext/qamqp _ZN5QAMQP15ExchangePrivate8deleteOkERKNS_5Frame6MethodE QAMQP::ExchangePrivate::deleteOk(QAMQP::Frame::Method const&)
ext/qamqp _ZN5QAMQP15ExchangePrivate9declareOkERKNS_5Frame6MethodE QAMQP::ExchangePrivate::declareOk(QAMQP::Frame::Method const&)
ext/qamqp _ZN5QAMQP15ExchangePrivate9_q_methodERKNS_5Frame6MethodE QAMQP::ExchangePrivate::_q_method(QAMQP::Frame::Method const&)
ext/qamqp _ZN5QAMQP15ExchangePrivateC1EPNS_8ExchangeE QAMQP::ExchangePrivate::ExchangePrivate(QAMQP::Exchange*)
ext/qamqp _ZN5QAMQP15ExchangePrivateC2EPNS_8ExchangeE QAMQP::ExchangePrivate::ExchangePrivate(QAMQP::Exchange*)
ext/qamqp _ZN5QAMQP15ExchangePrivateD0Ev QAMQP::ExchangePrivate::~ExchangePrivate()
ext/qamqp _ZN5QAMQP15ExchangePrivateD1Ev QAMQP::ExchangePrivate::~ExchangePrivate()
ext/qamqp _ZN5QAMQP15ExchangePrivateD2Ev QAMQP::ExchangePrivate::~ExchangePrivate()
ext/qamqp _ZN5QAMQP17ConnectionPrivate12_q_heartbeatEv QAMQP::ConnectionPrivate::_q_heartbeat()
ext/qamqp _ZN5QAMQP17ConnectionPrivate4initEPNS_6ClientE QAMQP::ConnectionPrivate::init(QAMQP::Client*)
ext/qamqp _ZN5QAMQP17ConnectionPrivate4openEv QAMQP::ConnectionPrivate::open()
ext/qamqp _ZN5QAMQP17ConnectionPrivate4tuneERKNS_5Frame6MethodE QAMQP::ConnectionPrivate::tune(QAMQP::Frame::Method const&)
ext/qamqp _ZN5QAMQP17ConnectionPrivate5closeEiRK7QStringii QAMQP::ConnectionPrivate::close(int, QString const&, int, int)
ext/qamqp _ZN5QAMQP17ConnectionPrivate5closeERKNS_5Frame6MethodE QAMQP::ConnectionPrivate::close(QAMQP::Frame::Method const&)
ext/qamqp _ZN5QAMQP17ConnectionPrivate5startERKNS_5Frame6MethodE QAMQP::ConnectionPrivate::start(QAMQP::Frame::Method const&)
ext/qamqp _ZN5QAMQP17ConnectionPrivate6openOkERKNS_5Frame6MethodE QAMQP::ConnectionPrivate::openOk(QAMQP::Frame::Method const&)
ext/qamqp _ZN5QAMQP17ConnectionPrivate6secureERKNS_5Frame6MethodE QAMQP::ConnectionPrivate::secure(QAMQP::Frame::Method const&)
ext/qamqp _ZN5QAMQP17ConnectionPrivate6setQOSEitib QAMQP::ConnectionPrivate::setQOS(int, unsigned short, int, bool)
ext/qamqp _ZN5QAMQP17ConnectionPrivate6tuneOkEv QAMQP::ConnectionPrivate::tuneOk()
ext/qamqp _ZN5QAMQP17ConnectionPrivate7closeOkERKNS_5Frame6MethodE QAMQP::ConnectionPrivate::closeOk(QAMQP::Frame::Method const&)
ext/qamqp _ZN5QAMQP17ConnectionPrivate7closeOkEv QAMQP::ConnectionPrivate::closeOk()
ext/qamqp _ZN5QAMQP17ConnectionPrivate7startOkEv QAMQP::ConnectionPrivate::startOk()
ext/qamqp _ZN5QAMQP17ConnectionPrivate8secureOkEv QAMQP::ConnectionPrivate::secureOk()
ext/qamqp _ZN5QAMQP17ConnectionPrivate9_q_methodERKNS_5Frame6MethodE QAMQP::ConnectionPrivate::_q_method(QAMQP::Frame::Method const&)
ext/qamqp _ZN5QAMQP17ConnectionPrivateC1EPNS_10ConnectionE QAMQP::ConnectionPrivate::ConnectionPrivate(QAMQP::Connection*)
ext/qamqp _ZN5QAMQP17ConnectionPrivateC2EPNS_10ConnectionE QAMQP::ConnectionPrivate::ConnectionPrivate(QAMQP::Connection*)
ext/qamqp _ZN5QAMQP17ConnectionPrivateD1Ev QAMQP::ConnectionPrivate::~ConnectionPrivate()
ext/qamqp _ZN5QAMQP17ConnectionPrivateD2Ev QAMQP::ConnectionPrivate::~ConnectionPrivate()
ext/qamqp _ZN5QAMQP21AMQPlainAuthenticator11setPasswordERK7QString QAMQP::AMQPlainAuthenticator::setPassword(QString const&)
ext/qamqp _ZN5QAMQP21AMQPlainAuthenticator5writeER11QDataStream QAMQP::AMQPlainAuthenticator::write(QDataStream&)
ext/qamqp _ZN5QAMQP21AMQPlainAuthenticator8setLoginERK7QString QAMQP::AMQPlainAuthenticator::setLogin(QString const&)
ext/qamqp _ZN5QAMQP21AMQPlainAuthenticatorC1ERK7QStringS3_ QAMQP::AMQPlainAuthenticator::AMQPlainAuthenticator(QString const&, QString const&)
ext/qamqp _ZN5QAMQP21AMQPlainAuthenticatorC2ERK7QStringS3_ QAMQP::AMQPlainAuthenticator::AMQPlainAuthenticator(QString const&, QString const&)
ext/qamqp _ZN5QAMQP21AMQPlainAuthenticatorD0Ev QAMQP::AMQPlainAuthenticator::~AMQPlainAuthenticator()
ext/qamqp _ZN5QAMQP21AMQPlainAuthenticatorD1Ev QAMQP::AMQPlainAuthenticator::~AMQPlainAuthenticator()
ext/qamqp _ZN5QAMQP21AMQPlainAuthenticatorD2Ev QAMQP::AMQPlainAuthenticator::~AMQPlainAuthenticator()
ext/qamqp _ZN5QAMQP5Frame10writeFieldEaR11QDataStreamRK8QVariantb QAMQP::Frame::writeField(signed char, QDataStream&, QVariant const&, bool)
ext/qamqp _ZN5QAMQP5Frame10writeFieldER11QDataStreamRK8QVariant QAMQP::Frame::writeField(QDataStream&, QVariant const&)
ext/qamqp _ZN5QAMQP5Frame11ContentBody11readPayloadER11QDataStream QAMQP::Frame::ContentBody::readPayload(QDataStream&)
ext/qamqp _ZN5QAMQP5Frame11ContentBody7setBodyERK10QByteArray QAMQP::Frame::ContentBody::setBody(QByteArray const&)
ext/qamqp _ZN5QAMQP5Frame11ContentBodyC1ER11QDataStream QAMQP::Frame::ContentBody::ContentBody(QDataStream&)
ext/qamqp _ZN5QAMQP5Frame11ContentBodyC1Ev QAMQP::Frame::ContentBody::ContentBody()
ext/qamqp _ZN5QAMQP5Frame11ContentBodyC2ER11QDataStream QAMQP::Frame::ContentBody::ContentBody(QDataStream&)
ext/qamqp _ZN5QAMQP5Frame11ContentBodyC2Ev QAMQP::Frame::ContentBody::ContentBody()
ext/qamqp _ZN5QAMQP5Frame11ContentBodyD0Ev QAMQP::Frame::ContentBody::~ContentBody()
ext/qamqp _ZN5QAMQP5Frame11ContentBodyD1Ev QAMQP::Frame::ContentBody::~ContentBody()
ext/qamqp _ZN5QAMQP5Frame11ContentBodyD2Ev QAMQP::Frame::ContentBody::~ContentBody()
ext/qamqp _ZN5QAMQP5Frame11deserializeER11QDataStreamR5QHashI7QString8QVariantE QAMQP::Frame::deserialize(QDataStream&, QHash<QString, QVariant>&)
ext/qamqp _ZN5QAMQP5Frame4Base10readHeaderER11QDataStream QAMQP::Frame::Base::readHeader(QDataStream&)
ext/qamqp _ZN5QAMQP5Frame4Base10setChannelEs QAMQP::Frame::Base::setChannel(short)
ext/qamqp _ZN5QAMQP5Frame4Base11readPayloadER11QDataStream QAMQP::Frame::Base::readPayload(QDataStream&)
ext/qamqp _ZN5QAMQP5Frame4Base7readEndER11QDataStream QAMQP::Frame::Base::readEnd(QDataStream&)
ext/qamqp _ZN5QAMQP5Frame4BaseC1ENS0_4TypeE QAMQP::Frame::Base::Base(QAMQP::Frame::Type)
ext/qamqp _ZN5QAMQP5Frame4BaseC1ER11QDataStream QAMQP::Frame::Base::Base(QDataStream&)
ext/qamqp _ZN5QAMQP5Frame4BaseC2ENS0_4TypeE QAMQP::Frame::Base::Base(QAMQP::Frame::Type)
ext/qamqp _ZN5QAMQP5Frame4BaseC2ER11QDataStream QAMQP::Frame::Base::Base(QDataStream&)
ext/qamqp _ZN5QAMQP5Frame4BaseD0Ev QAMQP::Frame::Base::~Base()
ext/qamqp _ZN5QAMQP5Frame4BaseD1Ev QAMQP::Frame::Base::~Base()
ext/qamqp _ZN5QAMQP5Frame4BaseD2Ev QAMQP::Frame::Base::~Base()
ext/qamqp _ZN5QAMQP5Frame5printERK5QHashI7QString8QVariantE QAMQP::Frame::print(QHash<QString, QVariant> const&)
ext/qamqp _ZN5QAMQP5Frame6Method11readPayloadER11QDataStream QAMQP::Frame::Method::readPayload(QDataStream&)
ext/qamqp _ZN5QAMQP5Frame6Method12setArgumentsERK10QByteArray QAMQP::Frame::Method::setArguments(QByteArray const&)
ext/qamqp _ZN5QAMQP5Frame6MethodC1ENS0_11MethodClassEs QAMQP::Frame::Method::Method(QAMQP::Frame::MethodClass, short)
ext/qamqp _ZN5QAMQP5Frame6MethodC1ER11QDataStream QAMQP::Frame::Method::Method(QDataStream&)
ext/qamqp _ZN5QAMQP5Frame6MethodC1Ev QAMQP::Frame::Method::Method()
ext/qamqp _ZN5QAMQP5Frame6MethodC2ENS0_11MethodClassEs QAMQP::Frame::Method::Method(QAMQP::Frame::MethodClass, short)
ext/qamqp _ZN5QAMQP5Frame6MethodC2ER11QDataStream QAMQP::Frame::Method::Method(QDataStream&)
ext/qamqp _ZN5QAMQP5Frame6MethodC2Ev QAMQP::Frame::Method::Method()
ext/qamqp _ZN5QAMQP5Frame6MethodD0Ev QAMQP::Frame::Method::~Method()
ext/qamqp _ZN5QAMQP5Frame6MethodD1Ev QAMQP::Frame::Method::~Method()
ext/qamqp _ZN5QAMQP5Frame6MethodD2Ev QAMQP::Frame::Method::~Method()
ext/qamqp _ZN5QAMQP5Frame7Content11readPayloadER11QDataStream QAMQP::Frame::Content::readPayload(QDataStream&)
ext/qamqp _ZN5QAMQP5Frame7Content11setPropertyENS1_8PropertyERK8QVariant QAMQP::Frame::Content::setProperty(QAMQP::Frame::Content::Property, QVariant const&)
ext/qamqp _ZN5QAMQP5Frame7Content7setBodyERK10QByteArray QAMQP::Frame::Content::setBody(QByteArray const&)
ext/qamqp _ZN5QAMQP5Frame7ContentC1ENS0_11MethodClassE QAMQP::Frame::Content::Content(QAMQP::Frame::MethodClass)
ext/qamqp _ZN5QAMQP5Frame7ContentC1ER11QDataStream QAMQP::Frame::Content::Content(QDataStream&)
ext/qamqp _ZN5QAMQP5Frame7ContentC1Ev QAMQP::Frame::Content::Content()
ext/qamqp _ZN5QAMQP5Frame7ContentC2ENS0_11MethodClassE QAMQP::Frame::Content::Content(QAMQP::Frame::MethodClass)
ext/qamqp _ZN5QAMQP5Frame7ContentC2ER11QDataStream QAMQP::Frame::Content::Content(QDataStream&)
ext/qamqp _ZN5QAMQP5Frame7ContentC2Ev QAMQP::Frame::Content::Content()
ext/qamqp _ZN5QAMQP5Frame7ContentD0Ev QAMQP::Frame::Content::~Content()
ext/qamqp _ZN5QAMQP5Frame7ContentD1Ev QAMQP::Frame::Content::~Content()
ext/qamqp _ZN5QAMQP5Frame7ContentD2Ev QAMQP::Frame::Content::~Content()
ext/qamqp _ZN5QAMQP5Frame9Heartbeat11readPayloadER11QDataStream QAMQP::Frame::Heartbeat::readPayload(QDataStream&)
ext/qamqp _ZN5QAMQP5Frame9HeartbeatC1Ev QAMQP::Frame::Heartbeat::Heartbeat()
ext/qamqp _ZN5QAMQP5Frame9HeartbeatC2Ev QAMQP::Frame::Heartbeat::Heartbeat()
ext/qamqp _ZN5QAMQP5Frame9HeartbeatD0Ev QAMQP::Frame::Heartbeat::~Heartbeat()
ext/qamqp _ZN5QAMQP5Frame9HeartbeatD1Ev QAMQP::Frame::Heartbeat::~Heartbeat()
ext/qamqp _ZN5QAMQP5Frame9HeartbeatD2Ev QAMQP::Frame::Heartbeat::~Heartbeat()
ext/qamqp _ZN5QAMQP5Frame9readFieldEaR11QDataStream QAMQP::Frame::readField(signed char, QDataStream&)
ext/qamqp _ZN5QAMQP5Frame9serializeER11QDataStreamRK5QHashI7QString8QVariantE QAMQP::Frame::serialize(QDataStream&, QHash<QString, QVariant> const&)
ext/qamqp _ZN5QAMQP5Queue10getMessageEv QAMQP::Queue::getMessage()
ext/qamqp _ZN5QAMQP5Queue10_q_contentERKNS_5Frame7ContentE QAMQP::Queue::_q_content(QAMQP::Frame::Content const&)
ext/qamqp _ZN5QAMQP5Queue11qt_metacallEN11QMetaObject4CallEiPPv QAMQP::Queue::qt_metacall(QMetaObject::Call, int, void**)
ext/qamqp _ZN5QAMQP5Queue11qt_metacastEPKc QAMQP::Queue::qt_metacast(char const*)
ext/qamqp _ZN5QAMQP5Queue14setConsumerTagERK7QString QAMQP::Queue::setConsumerTag(QString const&)
ext/qamqp _ZN5QAMQP5Queue15messageReceivedEPS0_ QAMQP::Queue::messageReceived(QAMQP::Queue*)
ext/qamqp _ZN5QAMQP5Queue16staticMetaObjectE QAMQP::Queue::staticMetaObject
ext/qamqp _ZN5QAMQP5Queue18qt_static_metacallEP7QObjectN11QMetaObject4CallEiPPv QAMQP::Queue::qt_static_metacall(QObject*, QMetaObject::Call, int, void**)
ext/qamqp _ZN5QAMQP5Queue3ackERK14QSharedPointerINS_7MessageEE QAMQP::Queue::ack(QSharedPointer<QAMQP::Message> const&)
ext/qamqp _ZN5QAMQP5Queue3getEv QAMQP::Queue::get()
ext/qamqp _ZN5QAMQP5Queue4bindEPNS_8ExchangeERK7QString QAMQP::Queue::bind(QAMQP::Exchange*, QString const&)
ext/qamqp _ZN5QAMQP5Queue4bindERK7QStringS3_ QAMQP::Queue::bind(QString const&, QString const&)
ext/qamqp _ZN5QAMQP5Queue5emptyEv QAMQP::Queue::empty()
ext/qamqp _ZN5QAMQP5Queue5purgeEv QAMQP::Queue::purge()
ext/qamqp _ZN5QAMQP5Queue6bindedEb QAMQP::Queue::binded(bool)
ext/qamqp _ZN5QAMQP5Queue6onOpenEv QAMQP::Queue::onOpen()
ext/qamqp _ZN5QAMQP5Queue6removeEbbb QAMQP::Queue::remove(bool, bool, bool)
ext/qamqp _ZN5QAMQP5Queue6unbindEPNS_8ExchangeERK7QString QAMQP::Queue::unbind(QAMQP::Exchange*, QString const&)
ext/qamqp _ZN5QAMQP5Queue6unbindERK7QStringS3_ QAMQP::Queue::unbind(QString const&, QString const&)
ext/qamqp _ZN5QAMQP5Queue7consumeE6QFlagsINS0_13ConsumeOptionEE QAMQP::Queue::consume(QFlags<QAMQP::Queue::ConsumeOption>)
ext/qamqp _ZN5QAMQP5Queue7declareERK7QString6QFlagsINS0_11QueueOptionEE QAMQP::Queue::declare(QString const&, QFlags<QAMQP::Queue::QueueOption>)
ext/qamqp _ZN5QAMQP5Queue7declareEv QAMQP::Queue::declare()
ext/qamqp _ZN5QAMQP5Queue7onCloseEv QAMQP::Queue::onClose()
ext/qamqp _ZN5QAMQP5Queue7_q_bodyERKNS_5Frame11ContentBodyE QAMQP::Queue::_q_body(QAMQP::Frame::ContentBody const&)
ext/qamqp _ZN5QAMQP5Queue7removedEv QAMQP::Queue::removed()
ext/qamqp _ZN5QAMQP5Queue8declaredEv QAMQP::Queue::declared()
ext/qamqp _ZN5QAMQP5Queue8setNoAckEb QAMQP::Queue::setNoAck(bool)
ext/qamqp _ZN5QAMQP5QueueC1EiPNS_6ClientE QAMQP::Queue::Queue(int, QAMQP::Client*)
ext/qamqp _ZN5QAMQP5QueueC2EiPNS_6ClientE QAMQP::Queue::Queue(int, QAMQP::Client*)
ext/qamqp _ZN5QAMQP5QueueD0Ev QAMQP::Queue::~Queue()
ext/qamqp _ZN5QAMQP5QueueD1Ev QAMQP::Queue::~Queue()
ext/qamqp _ZN5QAMQP5QueueD2Ev QAMQP::Queue::~Queue()
ext/qamqp _ZN5QAMQP6Client11createQueueEi QAMQP::Client::createQueue(int)
ext/qamqp _ZN5QAMQP6Client11createQueueERK7QStringi QAMQP::Client::createQueue(QString const&, int)
ext/qamqp _ZN5QAMQP6Client11qt_metacallEN11QMetaObject4CallEiPPv QAMQP::Client::qt_metacall(QMetaObject::Call, int, void**)
ext/qamqp _ZN5QAMQP6Client11qt_metacastEPKc QAMQP::Client::qt_metacast(char const*)
ext/qamqp _ZN5QAMQP6Client11setPasswordERK7QString QAMQP::Client::setPassword(QString const&)
ext/qamqp _ZN5QAMQP6Client12closeChannelEv QAMQP::Client::closeChannel()
ext/qamqp _ZN5QAMQP6Client12disconnectedEv QAMQP::Client::disconnected()
ext/qamqp _ZN5QAMQP6Client14createExchangeEi QAMQP::Client::createExchange(int)
ext/qamqp _ZN5QAMQP6Client14createExchangeERK7QStringi QAMQP::Client::createExchange(QString const&, int)
ext/qamqp _ZN5QAMQP6Client14setVirtualHostERK7QString QAMQP::Client::setVirtualHost(QString const&)
ext/qamqp _ZN5QAMQP6Client16setAutoReconnectEb QAMQP::Client::setAutoReconnect(bool)
ext/qamqp _ZN5QAMQP6Client16staticMetaObjectE QAMQP::Client::staticMetaObject
ext/qamqp _ZN5QAMQP6Client17addCustomPropertyERK7QStringS3_ QAMQP::Client::addCustomProperty(QString const&, QString const&)
ext/qamqp _ZN5QAMQP6Client18qt_static_metacallEP7QObjectN11QMetaObject4CallEiPPv QAMQP::Client::qt_static_metacall(QObject*, QMetaObject::Call, int, void**)
ext/qamqp _ZN5QAMQP6Client4openERK4QUrl QAMQP::Client::open(QUrl const&)
ext/qamqp _ZN5QAMQP6Client4openEv QAMQP::Client::open()
ext/qamqp _ZN5QAMQP6Client5closeEv QAMQP::Client::close()
ext/qamqp _ZN5QAMQP6Client6reopenEv QAMQP::Client::reopen()
ext/qamqp _ZN5QAMQP6Client6setSslEb QAMQP::Client::setSsl(bool)
ext/qamqp _ZN5QAMQP6Client7setAuthEPNS_13AuthenticatorE QAMQP::Client::setAuth(QAMQP::Authenticator*)
ext/qamqp _ZN5QAMQP6Client7setHostERK7QString QAMQP::Client::setHost(QString const&)
ext/qamqp _ZN5QAMQP6Client7setPortEj QAMQP::Client::setPort(unsigned int)
ext/qamqp _ZN5QAMQP6Client7setUserERK7QString QAMQP::Client::setUser(QString const&)
ext/qamqp _ZN5QAMQP6Client9connectedEv QAMQP::Client::connected()
ext/qamqp _ZN5QAMQP6ClientC1EP7QObject QAMQP::Client::Client(QObject*)
ext/qamqp _ZN5QAMQP6ClientC1ERK4QUrlP7QObject QAMQP::Client::Client(QUrl const&, QObject*)
ext/qamqp _ZN5QAMQP6ClientC2EP7QObject QAMQP::Client::Client(QObject*)
ext/qamqp _ZN5QAMQP6ClientC2ERK4QUrlP7QObject QAMQP::Client::Client(QUrl const&, QObject*)
ext/qamqp _ZN5QAMQP6ClientD0Ev QAMQP::Client::~Client()
ext/qamqp _ZN5QAMQP6ClientD1Ev QAMQP::Client::~Client()
ext/qamqp _ZN5QAMQP6ClientD2Ev QAMQP::Client::~Client()
ext/qamqp _ZN5QAMQP7Channel11flowChangedEb QAMQP::Channel::flowChanged(bool)
ext/qamqp _ZN5QAMQP7Channel11qt_metacallEN11QMetaObject4CallEiPPv QAMQP::Channel::qt_metacall(QMetaObject::Call, int, void**)
ext/qamqp _ZN5QAMQP7Channel11qt_metacastEPKc QAMQP::Channel::qt_metacast(char const*)
ext/qamqp _ZN5QAMQP7Channel12closeChannelEv QAMQP::Channel::closeChannel()
ext/qamqp _ZN5QAMQP7Channel12stateChangedEi QAMQP::Channel::stateChanged(int)
ext/qamqp _ZN5QAMQP7Channel13channelNumberEv QAMQP::Channel::channelNumber()
ext/qamqp _ZN5QAMQP7Channel16staticMetaObjectE QAMQP::Channel::staticMetaObject
ext/qamqp _ZN5QAMQP7Channel18qt_static_metacallEP7QObjectN11QMetaObject4CallEiPPv QAMQP::Channel::qt_static_metacall(QObject*, QMetaObject::Call, int, void**)
ext/qamqp _ZN5QAMQP7Channel4nameEv QAMQP::Channel::name()
ext/qamqp _ZN5QAMQP7Channel6closedEv QAMQP::Channel::closed()
ext/qamqp _ZN5QAMQP7Channel6onOpenEv QAMQP::Channel::onOpen()
ext/qamqp _ZN5QAMQP7Channel6openedEv QAMQP::Channel::opened()
ext/qamqp _ZN5QAMQP7Channel6reopenEv QAMQP::Channel::reopen()
ext/qamqp _ZN5QAMQP7Channel6setQOSEit QAMQP::Channel::setQOS(int, unsigned short)
ext/qamqp _ZN5QAMQP7Channel7onCloseEv QAMQP::Channel::onClose()
ext/qamqp _ZN5QAMQP7Channel7setNameERK7QString QAMQP::Channel::setName(QString const&)
ext/qamqp _ZN5QAMQP7Channel9_q_methodERKNS_5Frame6MethodE QAMQP::Channel::_q_method(QAMQP::Frame::Method const&)
ext/qamqp _ZN5QAMQP7ChannelC1EiPNS_6ClientE QAMQP::Channel::Channel(int, QAMQP::Client*)
ext/qamqp _ZN5QAMQP7ChannelC1EPNS_14ChannelPrivateE QAMQP::Channel::Channel(QAMQP::ChannelPrivate*)
ext/qamqp _ZN5QAMQP7ChannelC2EiPNS_6ClientE QAMQP::Channel::Channel(int, QAMQP::Client*)
ext/qamqp _ZN5QAMQP7ChannelC2EPNS_14ChannelPrivateE QAMQP::Channel::Channel(QAMQP::ChannelPrivate*)
ext/qamqp _ZN5QAMQP7ChannelD0Ev QAMQP::Channel::~Channel()
ext/qamqp _ZN5QAMQP7ChannelD1Ev QAMQP::Channel::~Channel()
ext/qamqp _ZN5QAMQP7ChannelD2Ev QAMQP::Channel::~Channel()
ext/qamqp _ZN5QAMQP7Network10disconnectEv QAMQP::Network::disconnect()
ext/qamqp _ZN5QAMQP7Network10initSocketEb QAMQP::Network::initSocket(bool)
ext/qamqp _ZN5QAMQP7Network11qt_metacallEN11QMetaObject4CallEiPPv QAMQP::Network::qt_metacall(QMetaObject::Call, int, void**)
ext/qamqp _ZN5QAMQP7Network11qt_metacastEPKc QAMQP::Network::qt_metacast(char const*)
ext/qamqp _ZN5QAMQP7Network12disconnectedEv QAMQP::Network::disconnected()
ext/qamqp _ZN5QAMQP7Network14conectionReadyEv QAMQP::Network::conectionReady()
ext/qamqp _ZN5QAMQP7Network16setAutoReconnectEb QAMQP::Network::setAutoReconnect(bool)
ext/qamqp _ZN5QAMQP7Network16staticMetaObjectE QAMQP::Network::staticMetaObject
ext/qamqp _ZN5QAMQP7Network18qt_static_metacallEP7QObjectN11QMetaObject4CallEiPPv QAMQP::Network::qt_static_metacall(QObject*, QMetaObject::Call, int, void**)
ext/qamqp _ZN5QAMQP7Network26addMethodHandlerForChannelEsPNS_5Frame13MethodHandlerE QAMQP::Network::addMethodHandlerForChannel(short, QAMQP::Frame::MethodHandler*)
ext/qamqp _ZN5QAMQP7Network26setMethodHandlerConnectionEPNS_5Frame13MethodHandlerE QAMQP::Network::setMethodHandlerConnection(QAMQP::Frame::MethodHandler*)
ext/qamqp _ZN5QAMQP7Network27addContentHandlerForChannelEsPNS_5Frame14ContentHandlerE QAMQP::Network::addContentHandlerForChannel(short, QAMQP::Frame::ContentHandler*)
ext/qamqp _ZN5QAMQP7Network31addContentBodyHandlerForChannelEsPNS_5Frame18ContentBodyHandlerE QAMQP::Network::addContentBodyHandlerForChannel(short, QAMQP::Frame::ContentBodyHandler*)
ext/qamqp _ZN5QAMQP7Network5errorEN15QAbstractSocket11SocketErrorE QAMQP::Network::error(QAbstractSocket::SocketError)
ext/qamqp _ZN5QAMQP7Network6setSslEb QAMQP::Network::setSsl(bool)
ext/qamqp _ZN5QAMQP7Network9connectedEv QAMQP::Network::connected()
ext/qamqp _ZN5QAMQP7Network9connectToERK7QStringj QAMQP::Network::connectTo(QString const&, unsigned int)
ext/qamqp _ZN5QAMQP7Network9readyReadEv QAMQP::Network::readyRead()
ext/qamqp _ZN5QAMQP7Network9sendFrameERKNS_5Frame4BaseE QAMQP::Network::sendFrame(QAMQP::Frame::Base const&)
ext/qamqp _ZN5QAMQP7Network9sslErrorsEv QAMQP::Network::sslErrors()
ext/qamqp _ZN5QAMQP7NetworkC1EP7QObject QAMQP::Network::Network(QObject*)
ext/qamqp _ZN5QAMQP7NetworkC2EP7QObject QAMQP::Network::Network(QObject*)
ext/qamqp _ZN5QAMQP7NetworkD0Ev QAMQP::Network::~Network()
ext/qamqp _ZN5QAMQP7NetworkD1Ev QAMQP::Network::~Network()
ext/qamqp _ZN5QAMQP7NetworkD2Ev QAMQP::Network::~Network()
ext/qamqp _ZN5QAMQP8Exchange11qt_metacallEN11QMetaObject4CallEiPPv QAMQP::Exchange::qt_metacall(QMetaObject::Call, int, void**)
ext/qamqp _ZN5QAMQP8Exchange11qt_metacastEPKc QAMQP::Exchange::qt_metacast(char const*)
ext/qamqp _ZN5QAMQP8Exchange16staticMetaObjectE QAMQP::Exchange::staticMetaObject
ext/qamqp _ZN5QAMQP8Exchange18qt_static_metacallEP7QObjectN11QMetaObject4CallEiPPv QAMQP::Exchange::qt_static_metacall(QObject*, QMetaObject::Call, int, void**)
ext/qamqp _ZN5QAMQP8Exchange4bindEPNS_5QueueE QAMQP::Exchange::bind(QAMQP::Queue*)
ext/qamqp _ZN5QAMQP8Exchange4bindERK7QString QAMQP::Exchange::bind(QString const&)
ext/qamqp _ZN5QAMQP8Exchange4bindERK7QStringS3_ QAMQP::Exchange::bind(QString const&, QString const&)
ext/qamqp _ZN5QAMQP8Exchange6onOpenEv QAMQP::Exchange::onOpen()
ext/qamqp _ZN5QAMQP8Exchange6removeEbb QAMQP::Exchange::remove(bool, bool)
ext/qamqp _ZN5QAMQP8Exchange7declareERK7QString6QFlagsINS0_14ExchangeOptionEERK5QHashIS1_8QVariantE QAMQP::Exchange::declare(QString const&, QFlags<QAMQP::Exchange::ExchangeOption>, QHash<QString, QVariant> const&)
ext/qamqp _ZN5QAMQP8Exchange7onCloseEv QAMQP::Exchange::onClose()
ext/qamqp _ZN5QAMQP8Exchange7publishERK10QByteArrayRK7QStringRK5QHashIS4_8QVariantES6_RKS7_INS_5Frame7Content8PropertyES8_E QAMQP::Exchange::publish(QByteArray const&, QString const&, QHash<QString, QVariant> const&, QString const&, QHash<QAMQP::Frame::Content::Property, QVariant> const&)
ext/qamqp _ZN5QAMQP8Exchange7publishERK10QByteArrayRK7QStringS6_RK5QHashINS_5Frame7Content8PropertyE8QVariantE QAMQP::Exchange::publish(QByteArray const&, QString const&, QString const&, QHash<QAMQP::Frame::Content::Property, QVariant> const&)
ext/qamqp _ZN5QAMQP8Exchange7publishERK7QStringS3_RK5QHashINS_5Frame7Content8PropertyE8QVariantE QAMQP::Exchange::publish(QString const&, QString const&, QHash<QAMQP::Frame::Content::Property, QVariant> const&)
ext/qamqp _ZN5QAMQP8Exchange7removedEv QAMQP::Exchange::removed()
ext/qamqp _ZN5QAMQP8Exchange8declaredEv QAMQP::Exchange::declared()
ext/qamqp _ZN5QAMQP8ExchangeC1EiPNS_6ClientE QAMQP::Exchange::Exchange(int, QAMQP::Client*)
ext/qamqp _ZN5QAMQP8ExchangeC2EiPNS_6ClientE QAMQP::Exchange::Exchange(int, QAMQP::Client*)
ext/qamqp _ZN5QAMQP8ExchangeD0Ev QAMQP::Exchange::~Exchange()
ext/qamqp _ZN5QAMQP8ExchangeD1Ev QAMQP::Exchange::~Exchange()
ext/qamqp _ZN5QAMQP8ExchangeD2Ev QAMQP::Exchange::~Exchange()
ext/qamqp _ZN5QHashI7QString8QVariantE11deleteNode2EPN9QHashData4NodeE QHash<QString, QVariant>::deleteNode2(QHashData::Node*)
ext/qamqp _ZN5QHashI7QString8QVariantE13detach_helperEv QHash<QString, QVariant>::detach_helper()
ext/qamqp _ZN5QHashI7QString8QVariantE13duplicateNodeEPN9QHashData4NodeEPv QHash<QString, QVariant>::duplicateNode(QHashData::Node*, void*)
ext/qamqp _ZN5QHashI7QString8QVariantED1Ev QHash<QString, QVariant>::~QHash()
ext/qamqp _ZN5QHashI7QString8QVariantED2Ev QHash<QString, QVariant>::~QHash()
ext/qamqp _ZN5QHashIi8QVariantE11deleteNode2EPN9QHashData4NodeE QHash<int, QVariant>::deleteNode2(QHashData::Node*)
ext/qamqp _ZN5QHashIi8QVariantE13duplicateNodeEPN9QHashData4NodeEPv QHash<int, QVariant>::duplicateNode(QHashData::Node*, void*)
ext/qamqp _ZN5QHashIN5QAMQP5Frame7Content8PropertyE8QVariantE11deleteNode2EPN9QHashData4NodeE QHash<QAMQP::Frame::Content::Property, QVariant>::deleteNode2(QHashData::Node*)
ext/qamqp _ZN5QHashIN5QAMQP5Frame7Content8PropertyE8QVariantE13duplicateNodeEPN9QHashData4NodeEPv QHash<QAMQP::Frame::Content::Property, QVariant>::duplicateNode(QHashData::Node*, void*)
ext/qamqp _ZN5QHashIs5QListIPN5QAMQP5Frame13MethodHandlerEEE11deleteNode2EPN9QHashData4NodeE QHash<short, QList<QAMQP::Frame::MethodHandler*> >::deleteNode2(QHashData::Node*)
ext/qamqp _ZN5QHashIs5QListIPN5QAMQP5Frame13MethodHandlerEEE13detach_helperEv QHash<short, QList<QAMQP::Frame::MethodHandler*> >::detach_helper()
ext/qamqp _ZN5QHashIs5QListIPN5QAMQP5Frame13MethodHandlerEEE13duplicateNodeEPN9QHashData4NodeEPv QHash<short, QList<QAMQP::Frame::MethodHandler*> >::duplicateNode(QHashData::Node*, void*)
ext/qamqp _ZN5QHashIs5QListIPN5QAMQP5Frame13MethodHandlerEEED1Ev QHash<short, QList<QAMQP::Frame::MethodHandler*> >::~QHash()
ext/qamqp _ZN5QHashIs5QListIPN5QAMQP5Frame13MethodHandlerEEED2Ev QHash<short, QList<QAMQP::Frame::MethodHandler*> >::~QHash()
ext/qamqp _ZN5QHashIs5QListIPN5QAMQP5Frame14ContentHandlerEEE11deleteNode2EPN9QHashData4NodeE QHash<short, QList<QAMQP::Frame::ContentHandler*> >::deleteNode2(QHashData::Node*)
ext/qamqp _ZN5QHashIs5QListIPN5QAMQP5Frame14ContentHandlerEEE13detach_helperEv QHash<short, QList<QAMQP::Frame::ContentHandler*> >::detach_helper()
ext/qamqp _ZN5QHashIs5QListIPN5QAMQP5Frame14ContentHandlerEEE13duplicateNodeEPN9QHashData4NodeEPv QHash<short, QList<QAMQP::Frame::ContentHandler*> >::duplicateNode(QHashData::Node*, void*)
ext/qamqp _ZN5QHashIs5QListIPN5QAMQP5Frame14ContentHandlerEEED1Ev QHash<short, QList<QAMQP::Frame::ContentHandler*> >::~QHash()
ext/qamqp _ZN5QHashIs5QListIPN5QAMQP5Frame14ContentHandlerEEED2Ev QHash<short, QList<QAMQP::Frame::ContentHandler*> >::~QHash()
ext/qamqp _ZN5QHashIs5QListIPN5QAMQP5Frame18ContentBodyHandlerEEE11deleteNode2EPN9QHashData4NodeE QHash<short, QList<QAMQP::Frame::ContentBodyHandler*> >::deleteNode2(QHashData::Node*)
ext/qamqp _ZN5QHashIs5QListIPN5QAMQP5Frame18ContentBodyHandlerEEE13detach_helperEv QHash<short, QList<QAMQP::Frame::ContentBodyHandler*> >::detach_helper()
ext/qamqp _ZN5QHashIs5QListIPN5QAMQP5Frame18ContentBodyHandlerEEE13duplicateNodeEPN9QHashData4NodeEPv QHash<short, QList<QAMQP::Frame::ContentBodyHandler*> >::duplicateNode(QHashData::Node*, void*)
ext/qamqp _ZN5QHashIs5QListIPN5QAMQP5Frame18ContentBodyHandlerEEED1Ev QHash<short, QList<QAMQP::Frame::ContentBodyHandler*> >::~QHash()
ext/qamqp _ZN5QHashIs5QListIPN5QAMQP5Frame18ContentBodyHandlerEEED2Ev QHash<short, QList<QAMQP::Frame::ContentBodyHandler*> >::~QHash()
ext/qamqp _ZN5QListI14QSharedPointerIN5QAMQP7MessageEEE13detach_helperEi QList<QSharedPointer<QAMQP::Message> >::detach_helper(int)
ext/qamqp _ZN5QListI14QSharedPointerIN5QAMQP7MessageEEE13detach_helperEv QList<QSharedPointer<QAMQP::Message> >::detach_helper()
ext/qamqp _ZN5QListI14QSharedPointerIN5QAMQP7MessageEEE18detach_helper_growEii QList<QSharedPointer<QAMQP::Message> >::detach_helper_grow(int, int)
ext/qamqp _ZN5QListI14QSharedPointerIN5QAMQP7MessageEEE6appendERKS3_ QList<QSharedPointer<QAMQP::Message> >::append(QSharedPointer<QAMQP::Message> const&)
ext/qamqp _ZN5QListI14QSharedPointerIN5QAMQP7MessageEEE7deallocEPN9QListData4DataE.isra.23 QList<QSharedPointer<QAMQP::Message> >::dealloc(QListData::Data*) [clone .isra.23]
ext/qamqp _ZN5QListI14QSharedPointerIN5QAMQP7MessageEEED1Ev QList<QSharedPointer<QAMQP::Message> >::~QList()
ext/qamqp _ZN5QListI14QSharedPointerIN5QAMQP7MessageEEED2Ev QList<QSharedPointer<QAMQP::Message> >::~QList()
ext/qamqp _ZN5QListI5QPairI7QStringS1_EE18detach_helper_growEii QList<QPair<QString, QString> >::detach_helper_grow(int, int)
ext/qamqp _ZN5QListI5QPairI7QStringS1_EE6appendERKS2_ QList<QPair<QString, QString> >::append(QPair<QString, QString> const&)
ext/qamqp _ZN5QListI5QPairI7QStringS1_EEC1ERKS3_ QList<QPair<QString, QString> >::QList(QList<QPair<QString, QString> > const&)
ext/qamqp _ZN5QListI5QPairI7QStringS1_EEC2ERKS3_ QList<QPair<QString, QString> >::QList(QList<QPair<QString, QString> > const&)
ext/qamqp _ZN5QListI5QPairI7QStringS1_EED1Ev QList<QPair<QString, QString> >::~QList()
ext/qamqp _ZN5QListI5QPairI7QStringS1_EED2Ev QList<QPair<QString, QString> >::~QList()
ext/qamqp _ZN5QListI8QVariantE18detach_helper_growEii QList<QVariant>::detach_helper_grow(int, int)
ext/qamqp _ZN5QListI8QVariantE6appendERKS0_ QList<QVariant>::append(QVariant const&)
ext/qamqp _ZN5QListI8QVariantED1Ev QList<QVariant>::~QList()
ext/qamqp _ZN5QListI8QVariantED2Ev QList<QVariant>::~QList()
ext/qamqp _ZN5QListIiE13detach_helperEi QList<int>::detach_helper(int)
ext/qamqp _ZN5QListIiE18detach_helper_growEii QList<int>::detach_helper_grow(int, int)
ext/qamqp _ZN5QListIiE6appendERKi QList<int>::append(int const&)
ext/qamqp _ZN5QListIiEC1ERKS0_ QList<int>::QList(QList<int> const&)
ext/qamqp _ZN5QListIiEC2ERKS0_ QList<int>::QList(QList<int> const&)
ext/qamqp _ZN5QListIiED1Ev QList<int>::~QList()
ext/qamqp _ZN5QListIiED2Ev QList<int>::~QList()
ext/qamqp _ZN5QListIPN5QAMQP5Frame13MethodHandlerEE18detach_helper_growEii QList<QAMQP::Frame::MethodHandler*>::detach_helper_grow(int, int)
ext/qamqp _ZN5QListIPN5QAMQP5Frame13MethodHandlerEE6appendERKS3_ QList<QAMQP::Frame::MethodHandler*>::append(QAMQP::Frame::MethodHandler* const&)
ext/qamqp _ZN5QListIPN5QAMQP5Frame13MethodHandlerEEC1ERKS4_ QList<QAMQP::Frame::MethodHandler*>::QList(QList<QAMQP::Frame::MethodHandler*> const&)
ext/qamqp _ZN5QListIPN5QAMQP5Frame13MethodHandlerEEC2ERKS4_ QList<QAMQP::Frame::MethodHandler*>::QList(QList<QAMQP::Frame::MethodHandler*> const&)
ext/qamqp _ZN5QListIPN5QAMQP5Frame13MethodHandlerEED1Ev QList<QAMQP::Frame::MethodHandler*>::~QList()
ext/qamqp _ZN5QListIPN5QAMQP5Frame13MethodHandlerEED2Ev QList<QAMQP::Frame::MethodHandler*>::~QList()
ext/qamqp _ZN5QListIPN5QAMQP5Frame14ContentHandlerEE18detach_helper_growEii QList<QAMQP::Frame::ContentHandler*>::detach_helper_grow(int, int)
ext/qamqp _ZN5QListIPN5QAMQP5Frame14ContentHandlerEE6appendERKS3_ QList<QAMQP::Frame::ContentHandler*>::append(QAMQP::Frame::ContentHandler* const&)
ext/qamqp _ZN5QListIPN5QAMQP5Frame14ContentHandlerEEC1ERKS4_ QList<QAMQP::Frame::ContentHandler*>::QList(QList<QAMQP::Frame::ContentHandler*> const&)
ext/qamqp _ZN5QListIPN5QAMQP5Frame14ContentHandlerEEC2ERKS4_ QList<QAMQP::Frame::ContentHandler*>::QList(QList<QAMQP::Frame::ContentHandler*> const&)
ext/qamqp _ZN5QListIPN5QAMQP5Frame14ContentHandlerEED1Ev QList<QAMQP::Frame::ContentHandler*>::~QList()
ext/qamqp _ZN5QListIPN5QAMQP5Frame14ContentHandlerEED2Ev QList<QAMQP::Frame::ContentHandler*>::~QList()
ext/qamqp _ZN5QListIPN5QAMQP5Frame18ContentBodyHandlerEE18detach_helper_growEii QList<QAMQP::Frame::ContentBodyHandler*>::detach_helper_grow(int, int)
ext/qamqp _ZN5QListIPN5QAMQP5Frame18ContentBodyHandlerEE6appendERKS3_ QList<QAMQP::Frame::ContentBodyHandler*>::append(QAMQP::Frame::ContentBodyHandler* const&)
ext/qamqp _ZN5QListIPN5QAMQP5Frame18ContentBodyHandlerEEC1ERKS4_ QList<QAMQP::Frame::ContentBodyHandler*>::QList(QList<QAMQP::Frame::ContentBodyHandler*> const&)
ext/qamqp _ZN5QListIPN5QAMQP5Frame18ContentBodyHandlerEEC2ERKS4_ QList<QAMQP::Frame::ContentBodyHandler*>::QList(QList<QAMQP::Frame::ContentBodyHandler*> const&)
ext/qamqp _ZN5QListIPN5QAMQP5Frame18ContentBodyHandlerEED1Ev QList<QAMQP::Frame::ContentBodyHandler*>::~QList()
ext/qamqp _ZN5QListIPN5QAMQP5Frame18ContentBodyHandlerEED2Ev QList<QAMQP::Frame::ContentBodyHandler*>::~QList()
ext/qamqp _ZN5QPairI7QStringS0_ED1Ev QPair<QString, QString>::~QPair()
ext/qamqp _ZN5QPairI7QStringS0_ED2Ev QPair<QString, QString>::~QPair()
ext/qamqp _ZN7QStringD1Ev QString::~QString()
ext/qamqp _ZN7QStringD2Ev QString::~QString()
ext/qamqp _ZNK5QAMQP10Connection10metaObjectEv QAMQP::Connection::metaObject() const
ext/qamqp _ZNK5QAMQP10Connection11isConnectedEv QAMQP::Connection::isConnected() const
ext/qamqp _ZNK5QAMQP10Connection14customPropertyERK7QString QAMQP::Connection::customProperty(QString const&) const
ext/qamqp _ZNK5QAMQP13ClientPrivate12printConnectEv QAMQP::ClientPrivate::printConnect() const
ext/qamqp _ZNK5QAMQP21AMQPlainAuthenticator4typeEv QAMQP::AMQPlainAuthenticator::type() const
ext/qamqp _ZNK5QAMQP21AMQPlainAuthenticator5loginEv QAMQP::AMQPlainAuthenticator::login() const
ext/qamqp _ZNK5QAMQP21AMQPlainAuthenticator8passwordEv QAMQP::AMQPlainAuthenticator::password() const
ext/qamqp _ZNK5QAMQP5Frame11ContentBody12writePayloadER11QDataStream QAMQP::Frame::ContentBody::writePayload(QDataStream&) const
ext/qamqp _ZNK5QAMQP5Frame11ContentBody4bodyEv QAMQP::Frame::ContentBody::body() const
ext/qamqp _ZNK5QAMQP5Frame11ContentBody4sizeEv QAMQP::Frame::ContentBody::size() const
ext/qamqp _ZNK5QAMQP5Frame4Base11writeHeaderER11QDataStream QAMQP::Frame::Base::writeHeader(QDataStream&) const
ext/qamqp _ZNK5QAMQP5Frame4Base12writePayloadER11QDataStream QAMQP::Frame::Base::writePayload(QDataStream&) const
ext/qamqp _ZNK5QAMQP5Frame4Base4sizeEv QAMQP::Frame::Base::size() const
ext/qamqp _ZNK5QAMQP5Frame4Base4typeEv QAMQP::Frame::Base::type() const
ext/qamqp _ZNK5QAMQP5Frame4Base7channelEv QAMQP::Frame::Base::channel() const
ext/qamqp _ZNK5QAMQP5Frame4Base8toStreamER11QDataStream QAMQP::Frame::Base::toStream(QDataStream&) const
ext/qamqp _ZNK5QAMQP5Frame4Base8writeEndER11QDataStream QAMQP::Frame::Base::writeEnd(QDataStream&) const
ext/qamqp _ZNK5QAMQP5Frame6Method11methodClassEv QAMQP::Frame::Method::methodClass() const
ext/qamqp _ZNK5QAMQP5Frame6Method12writePayloadER11QDataStream QAMQP::Frame::Method::writePayload(QDataStream&) const
ext/qamqp _ZNK5QAMQP5Frame6Method2idEv QAMQP::Frame::Method::id() const
ext/qamqp _ZNK5QAMQP5Frame6Method4sizeEv QAMQP::Frame::Method::size() const
ext/qamqp _ZNK5QAMQP5Frame6Method9argumentsEv QAMQP::Frame::Method::arguments() const
ext/qamqp _ZNK5QAMQP5Frame7Content11methodClassEv QAMQP::Frame::Content::methodClass() const
ext/qamqp _ZNK5QAMQP5Frame7Content12writePayloadER11QDataStream QAMQP::Frame::Content::writePayload(QDataStream&) const
ext/qamqp _ZNK5QAMQP5Frame7Content4bodyEv QAMQP::Frame::Content::body() const
ext/qamqp _ZNK5QAMQP5Frame7Content4sizeEv QAMQP::Frame::Content::size() const
ext/qamqp _ZNK5QAMQP5Frame7Content8bodySizeEv QAMQP::Frame::Content::bodySize() const
ext/qamqp _ZNK5QAMQP5Frame7Content8propertyENS1_8PropertyE QAMQP::Frame::Content::property(QAMQP::Frame::Content::Property) const
ext/qamqp _ZNK5QAMQP5Frame9Heartbeat12writePayloadER11QDataStream QAMQP::Frame::Heartbeat::writePayload(QDataStream&) const
ext/qamqp _ZNK5QAMQP5Queue10hasMessageEv QAMQP::Queue::hasMessage() const
ext/qamqp _ZNK5QAMQP5Queue10metaObjectEv QAMQP::Queue::metaObject() const
ext/qamqp _ZNK5QAMQP5Queue11consumerTagEv QAMQP::Queue::consumerTag() const
ext/qamqp _ZNK5QAMQP5Queue5noAckEv QAMQP::Queue::noAck() const
ext/qamqp _ZNK5QAMQP5Queue6optionEv QAMQP::Queue::option() const
ext/qamqp _ZNK5QAMQP6Client10metaObjectEv QAMQP::Client::metaObject() const
ext/qamqp _ZNK5QAMQP6Client11isConnectedEv QAMQP::Client::isConnected() const
ext/qamqp _ZNK5QAMQP6Client11virtualHostEv QAMQP::Client::virtualHost() const
ext/qamqp _ZNK5QAMQP6Client12printConnectEv QAMQP::Client::printConnect() const
ext/qamqp _ZNK5QAMQP6Client13autoReconnectEv QAMQP::Client::autoReconnect() const
ext/qamqp _ZNK5QAMQP6Client14customPropertyERK7QString QAMQP::Client::customProperty(QString const&) const
ext/qamqp _ZNK5QAMQP6Client4authEv QAMQP::Client::auth() const
ext/qamqp _ZNK5QAMQP6Client4hostEv QAMQP::Client::host() const
ext/qamqp _ZNK5QAMQP6Client4portEv QAMQP::Client::port() const
ext/qamqp _ZNK5QAMQP6Client4userEv QAMQP::Client::user() const
ext/qamqp _ZNK5QAMQP6Client5isSslEv QAMQP::Client::isSsl() const
ext/qamqp _ZNK5QAMQP6Client8passwordEv QAMQP::Client::password() const
ext/qamqp _ZNK5QAMQP7Channel10metaObjectEv QAMQP::Channel::metaObject() const
ext/qamqp _ZNK5QAMQP7Channel8isOpenedEv QAMQP::Channel::isOpened() const
ext/qamqp _ZNK5QAMQP7Network10metaObjectEv QAMQP::Network::metaObject() const
ext/qamqp _ZNK5QAMQP7Network13autoReconnectEv QAMQP::Network::autoReconnect() const
ext/qamqp _ZNK5QAMQP7Network5isSslEv QAMQP::Network::isSsl() const
ext/qamqp _ZNK5QAMQP7Network5stateEv QAMQP::Network::state() const
ext/qamqp _ZNK5QAMQP8Exchange10metaObjectEv QAMQP::Exchange::metaObject() const
ext/qamqp _ZNK5QAMQP8Exchange4typeEv QAMQP::Exchange::type() const
ext/qamqp _ZNK5QAMQP8Exchange6optionEv QAMQP::Exchange::option() const
ext/qamqp _ZNK5QHashI7QString8QVariantE8findNodeERKS0_Pj QHash<QString, QVariant>::findNode(QString const&, unsigned int*) const
ext/qamqp _ZNK5QHashIi8QVariantE4keysEv QHash<int, QVariant>::keys() const
ext/qamqp _ZNK5QHashIi8QVariantE8findNodeERKiPj QHash<int, QVariant>::findNode(int const&, unsigned int*) const
ext/qamqp _ZNK5QHashIN5QAMQP5Frame7Content8PropertyE8QVariantE8findNodeERKS3_Pj QHash<QAMQP::Frame::Content::Property, QVariant>::findNode(QAMQP::Frame::Content::Property const&, unsigned int*) const
ext/qamqp _ZNK5QHashIs5QListIPN5QAMQP5Frame13MethodHandlerEEE8findNodeERKsPj QHash<short, QList<QAMQP::Frame::MethodHandler*> >::findNode(short const&, unsigned int*) const
ext/qamqp _ZNK5QHashIs5QListIPN5QAMQP5Frame14ContentHandlerEEE8findNodeERKsPj QHash<short, QList<QAMQP::Frame::ContentHandler*> >::findNode(short const&, unsigned int*) const
ext/qamqp _ZNK5QHashIs5QListIPN5QAMQP5Frame18ContentBodyHandlerEEE8findNodeERKsPj QHash<short, QList<QAMQP::Frame::ContentBodyHandler*> >::findNode(short const&, unsigned int*) const
ext/qamqp _ZThn16_N5QAMQP10Connection9_q_methodERKNS_5Frame6MethodE non-virtual thunk to QAMQP::Connection::_q_method(QAMQP::Frame::Method const&)
ext/qamqp _ZThn16_N5QAMQP7Channel9_q_methodERKNS_5Frame6MethodE non-virtual thunk to QAMQP::Channel::_q_method(QAMQP::Frame::Method const&)
ext/qamqp _ZThn32_N5QAMQP5Queue10_q_contentERKNS_5Frame7ContentE non-virtual thunk to QAMQP::Queue::_q_content(QAMQP::Frame::Content const&)
ext/qamqp _ZThn40_N5QAMQP5Queue7_q_bodyERKNS_5Frame11ContentBodyE non-virtual thunk to QAMQP::Queue::_q_body(QAMQP::Frame::ContentBody const&)
ext/qamqp _ZTIN5QAMQP10ConnectionE typeinfo for QAMQP::Connection
ext/qamqp _ZTIN5QAMQP12QueuePrivateE typeinfo for QAMQP::QueuePrivate
ext/qamqp _ZTIN5QAMQP13AuthenticatorE typeinfo for QAMQP::Authenticator
ext/qamqp _ZTIN5QAMQP14ChannelPrivateE typeinfo for QAMQP::ChannelPrivate
ext/qamqp _ZTIN5QAMQP15ExchangePrivateE typeinfo for QAMQP::ExchangePrivate
ext/qamqp _ZTIN5QAMQP21AMQPlainAuthenticatorE typeinfo for QAMQP::AMQPlainAuthenticator
ext/qamqp _ZTIN5QAMQP5Frame11ContentBodyE typeinfo for QAMQP::Frame::ContentBody
ext/qamqp _ZTIN5QAMQP5Frame13MethodHandlerE typeinfo for QAMQP::Frame::MethodHandler
ext/qamqp _ZTIN5QAMQP5Frame14ContentHandlerE typeinfo for QAMQP::Frame::ContentHandler
ext/qamqp _ZTIN5QAMQP5Frame18ContentBodyHandlerE typeinfo for QAMQP::Frame::ContentBodyHandler
ext/qamqp _ZTIN5QAMQP5Frame4BaseE typeinfo for QAMQP::Frame::Base
ext/qamqp _ZTIN5QAMQP5Frame6MethodE typeinfo for QAMQP::Frame::Method
ext/qamqp _ZTIN5QAMQP5Frame7ContentE typeinfo for QAMQP::Frame::Content
ext/qamqp _ZTIN5QAMQP5Frame9HeartbeatE typeinfo for QAMQP::Frame::Heartbeat
ext/qamqp _ZTIN5QAMQP5QueueE typeinfo for QAMQP::Queue
ext/qamqp _ZTIN5QAMQP6ClientE typeinfo for QAMQP::Client
ext/qamqp _ZTIN5QAMQP7ChannelE typeinfo for QAMQP::Channel
ext/qamqp _ZTIN5QAMQP7NetworkE typeinfo for QAMQP::Network
ext/qamqp _ZTIN5QAMQP8ExchangeE typeinfo for QAMQP::Exchange
ext/qamqp _ZTSN5QAMQP10ConnectionE typeinfo name for QAMQP::Connection
ext/qamqp _ZTSN5QAMQP12QueuePrivateE typeinfo name for QAMQP::QueuePrivate
ext/qamqp _ZTSN5QAMQP13AuthenticatorE typeinfo name for QAMQP::Authenticator
ext/qamqp _ZTSN5QAMQP14ChannelPrivateE typeinfo name for QAMQP::ChannelPrivate
ext/qamqp _ZTSN5QAMQP15ExchangePrivateE typeinfo name for QAMQP::ExchangePrivate
ext/qamqp _ZTSN5QAMQP21AMQPlainAuthenticatorE typeinfo name for QAMQP::AMQPlainAuthenticator
ext/qamqp _ZTSN5QAMQP5Frame11ContentBodyE typeinfo name for QAMQP::Frame::ContentBody
ext/qamqp _ZTSN5QAMQP5Frame13MethodHandlerE typeinfo name for QAMQP::Frame::MethodHandler
ext/qamqp _ZTSN5QAMQP5Frame14ContentHandlerE typeinfo name for QAMQP::Frame::ContentHandler
ext/qamqp _ZTSN5QAMQP5Frame18ContentBodyHandlerE typeinfo name for QAMQP::Frame::ContentBodyHandler
ext/qamqp _ZTSN5QAMQP5Frame4BaseE typeinfo name for QAMQP::Frame::Base
ext/qamqp _ZTSN5QAMQP5Frame6MethodE typeinfo name for QAMQP::Frame::Method
ext/qamqp _ZTSN5QAMQP5Frame7ContentE typeinfo name for QAMQP::Frame::Content
ext/qamqp _ZTSN5QAMQP5Frame9HeartbeatE typeinfo name for QAMQP::Frame::Heartbeat
ext/qamqp _ZTSN5QAMQP5QueueE typeinfo name for QAMQP::Queue
ext/qamqp _ZTSN5QAMQP6ClientE typeinfo name for QAMQP::Client
ext/qamqp _ZTSN5QAMQP7ChannelE typeinfo name for QAMQP::Channel
ext/qamqp _ZTSN5QAMQP7NetworkE typeinfo name for QAMQP::Network
ext/qamqp _ZTSN5QAMQP8ExchangeE typeinfo name for QAMQP::Exchange
ext/qamqp _ZTVN5QAMQP10ConnectionE vtable for QAMQP::Connection
ext/qamqp _ZTVN5QAMQP12QueuePrivateE vtable for QAMQP::QueuePrivate
ext/qamqp _ZTVN5QAMQP13AuthenticatorE vtable for QAMQP::Authenticator
ext/qamqp _ZTVN5QAMQP14ChannelPrivateE vtable for QAMQP::ChannelPrivate
ext/qamqp _ZTVN5QAMQP15ExchangePrivateE vtable for QAMQP::ExchangePrivate
ext/qamqp _ZTVN5QAMQP21AMQPlainAuthenticatorE vtable for QAMQP::AMQPlainAuthenticator
ext/qamqp _ZTVN5QAMQP5Frame11ContentBodyE vtable for QAMQP::Frame::ContentBody
ext/qamqp _ZTVN5QAMQP5Frame13MethodHandlerE vtable for QAMQP::Frame::MethodHandler
ext/qamqp _ZTVN5QAMQP5Frame14ContentHandlerE vtable for QAMQP::Frame::ContentHandler
ext/qamqp _ZTVN5QAMQP5Frame18ContentBodyHandlerE vtable for QAMQP::Frame::ContentBodyHandler
ext/qamqp _ZTVN5QAMQP5Frame4BaseE vtable for QAMQP::Frame::Base
ext/qamqp _ZTVN5QAMQP5Frame6MethodE vtable for QAMQP::Frame::Method
ext/qamqp _ZTVN5QAMQP5Frame7ContentE vtable for QAMQP::Frame::Content
ext/qamqp _ZTVN5QAMQP5Frame9HeartbeatE vtable for QAMQP::Frame::Heartbeat
ext/qamqp _ZTVN5QAMQP5QueueE vtable for QAMQP::Queue
ext/qamqp _ZTVN5QAMQP6ClientE vtable for QAMQP::Client
ext/qamqp _ZTVN5QAMQP7ChannelE vtable for QAMQP::Channel
ext/qamqp _ZTVN5QAMQP7NetworkE vtable for QAMQP::Network
ext/qamqp _ZTVN5QAMQP8ExchangeE vtable for QAMQP::Exchange
ext/qamqp _ZZN11QMetaTypeIdIN15QAbstractSocket11SocketErrorEE14qt_metatype_idEvE11metatype_id QMetaTypeId<QAbstractSocket::SocketError>::qt_metatype_id()::metatype_id
ext/qamqp _ZZN11QMetaTypeIdIN5QAMQP5Frame7decimalEE14qt_metatype_idEvE11metatype_id QMetaTypeId<QAMQP::Frame::decimal>::qt_metatype_id()::metatype_id
ext/qamqp _ZZN18QMetaTypeIdQObjectIPN5QAMQP5QueueELb1EE14qt_metatype_idEvE11metatype_id QMetaTypeIdQObject<QAMQP::Queue*, true>::qt_metatype_id()::metatype_id
ext/tcpline _ZL26qt_meta_data_ClientTcpLine qt_meta_data_ClientTcpLine
ext/tcpline _ZL32qt_meta_stringdata_ClientTcpLine qt_meta_stringdata_ClientTcpLine
ext/tcpline _ZN10QByteArrayD1Ev QByteArray::~QByteArray()
ext/tcpline _ZN10QByteArrayD2Ev QByteArray::~QByteArray()
ext/tcpline _ZN13ClientTcpLine11qt_metacallEN11QMetaObject4CallEiPPv ClientTcpLine::qt_metacall(QMetaObject::Call, int, void**)
ext/tcpline _ZN13ClientTcpLine11qt_metacastEPKc ClientTcpLine::qt_metacast(char const*)
ext/tcpline _ZN13ClientTcpLine12handleBufferERK10QByteArray ClientTcpLine::handleBuffer(QByteArray const&)
ext/tcpline _ZN13ClientTcpLine16staticMetaObjectE ClientTcpLine::staticMetaObject
ext/tcpline _ZN13ClientTcpLine18qt_static_metacallEP7QObjectN11QMetaObject4CallEiPPv ClientTcpLine::qt_static_metacall(QObject*, QMetaObject::Call, int, void**)
ext/tcpline _ZN13ClientTcpLineC1EP10QTcpSocketP6Daemon ClientTcpLine::ClientTcpLine(QTcpSocket*, Daemon*)
ext/tcpline _ZN13ClientTcpLineC2EP10QTcpSocketP6Daemon ClientTcpLine::ClientTcpLine(QTcpSocket*, Daemon*)
ext/tcpline _ZN13ClientTcpLineD0Ev ClientTcpLine::~ClientTcpLine()
ext/tcpline _ZN13ClientTcpLineD1Ev ClientTcpLine::~ClientTcpLine()
ext/tcpline _ZN13ClientTcpLineD2Ev ClientTcpLine::~ClientTcpLine()
ext/tcpline _ZN9ClientTcpD0Ev ClientTcp::~ClientTcp()
ext/tcpline _ZN9ClientTcpD1Ev ClientTcp::~ClientTcp()
ext/tcpline _ZN9ClientTcpD2Ev ClientTcp::~ClientTcp()
ext/tcpline _ZNK13ClientTcpLine10metaObjectEv ClientTcpLine::metaObject() const
ext/tcpline _ZTI13ClientTcpLine typeinfo for ClientTcpLine
ext/tcpline _ZTS13ClientTcpLine typeinfo name for ClientTcpLine
ext/tcpline _ZTV13ClientTcpLine vtable for ClientTcpLine
